target datalayout = "e-m:e-p270:32:32-p271:32:32-p272:64:64-i64:64-i128:128-f80:128-n8:16:32:64-S128"
target triple = "x86_64-pc-linux-gnu"

%struct._zval_struct = type { %union._zend_value, %union.anon.3, %union.anon.6 }
%union._zend_value = type { i64 }
%union.anon.3 = type { i32 }
%union.anon.6 = type { i32 }
%struct._zend_refcounted_h = type { i32, %union.anon.1 }
%union.anon.1 = type { i32 }
%struct._pdo_stmt_t = type { ptr, ptr, [6 x i8], i16, ptr, ptr, ptr, ptr, i32, i32, %union.anon, ptr, ptr, ptr, i64, ptr, ptr, ptr, %struct._zend_object }
%union.anon = type { %struct.anon.0 }
%struct.anon.0 = type { %struct._zend_fcall_info_cache }
%struct._zend_fcall_info_cache = type { ptr, ptr, ptr, ptr, ptr }
%struct._zend_object = type { %struct._zend_refcounted_h, i32, i32, ptr, ptr, ptr, [1 x %struct._zval_struct] }
%struct._zend_refcounted = type { %struct._zend_refcounted_h }
%struct._pdo_row_t = type { ptr, %struct._zend_object }

; Function Attrs: alwaysinline nounwind uwtable
define internal i32 @zend_gc_delref(ptr noundef %0) #3 {
  %2 = alloca ptr, align 8
  store ptr %0, ptr %2, align 8, !tbaa !109
  %3 = load ptr, ptr %2, align 8, !tbaa !109
  %4 = getelementptr inbounds nuw %struct._zend_refcounted_h, ptr %3, i32 0, i32 0
  %5 = load i32, ptr %4, align 4, !tbaa !111
  %6 = icmp ugt i32 %5, 0
  call void @llvm.assume(i1 %6)
  br label %7

7:                                                ; preds = %1
  br label %8

8:                                                ; preds = %7
  %9 = load ptr, ptr %2, align 8, !tbaa !109
  %10 = getelementptr inbounds nuw %struct._zend_refcounted_h, ptr %9, i32 0, i32 0
  %11 = load i32, ptr %10, align 4, !tbaa !111
  %12 = add i32 %11, -1
  store i32 %12, ptr %10, align 4, !tbaa !111
  ret i32 %12
}

; Function Attrs: alwaysinline nounwind uwtable
define internal void @zend_object_release(ptr noundef %0) #3 {
  %2 = alloca ptr, align 8
  store ptr %0, ptr %2, align 8, !tbaa !108
  %3 = load ptr, ptr %2, align 8, !tbaa !108
  %4 = getelementptr inbounds nuw %struct._zend_object, ptr %3, i32 0, i32 0
  %5 = call i32 @zend_gc_delref(ptr noundef %4)
  %6 = icmp eq i32 %5, 0
  br i1 %6, label %7, label %9

7:                                                ; preds = %1
  %8 = load ptr, ptr %2, align 8, !tbaa !108
  call void @zend_objects_store_del(ptr noundef %8)
  br label %25

9:                                                ; preds = %1
  %10 = load ptr, ptr %2, align 8, !tbaa !108
  %11 = getelementptr inbounds nuw %struct._zend_refcounted, ptr %10, i32 0, i32 0
  %12 = getelementptr inbounds nuw %struct._zend_refcounted_h, ptr %11, i32 0, i32 1
  %13 = load i32, ptr %12, align 4, !tbaa !45
  %14 = and i32 %13, -1008
  %15 = icmp eq i32 %14, 0
  %16 = xor i1 %15, true
  %17 = xor i1 %16, true
  %18 = zext i1 %17 to i32
  %19 = sext i32 %18 to i64
  %20 = call i64 @llvm.expect.i64(i64 %19, i64 0)
  %21 = icmp ne i64 %20, 0
  br i1 %21, label %22, label %24

22:                                               ; preds = %9
  %23 = load ptr, ptr %2, align 8, !tbaa !108
  call void @gc_possible_root(ptr noundef %23)
  br label %24

24:                                               ; preds = %22, %9
  br label %25

25:                                               ; preds = %24, %7
  ret void
}

; Function Attrs: inlinehint nounwind uwtable
define internal ptr @php_pdo_row_fetch_object(ptr noundef %0) #7 {
  %2 = alloca ptr, align 8
  store ptr %0, ptr %2, align 8, !tbaa !108
  %3 = load ptr, ptr %2, align 8, !tbaa !108
  %4 = getelementptr inbounds i8, ptr %3, i64 -8
  ret ptr %4
}

; Function Attrs: nounwind uwtable
define internal void @pdo_row_free_storage(ptr noundef %0) #0 {
  %2 = alloca ptr, align 8
  %3 = alloca ptr, align 8
  store ptr %0, ptr %2, align 8, !tbaa !108
  call void @llvm.lifetime.start.p0(i64 8, ptr %3) #14
  %4 = load ptr, ptr %2, align 8, !tbaa !108
  %5 = call ptr @php_pdo_row_fetch_object(ptr noundef %4)
  store ptr %5, ptr %3, align 8, !tbaa !197
  %6 = load ptr, ptr %3, align 8, !tbaa !197
  %7 = getelementptr inbounds nuw %struct._pdo_row_t, ptr %6, i32 0, i32 0
  %8 = load ptr, ptr %7, align 8, !tbaa !199
  %9 = icmp ne ptr %8, null
  br i1 %9, label %10, label %19

10:                                               ; preds = %1
  %11 = load ptr, ptr %3, align 8, !tbaa !197
  %12 = getelementptr inbounds nuw %struct._pdo_row_t, ptr %11, i32 0, i32 0
  %13 = load ptr, ptr %12, align 8, !tbaa !199
  %14 = getelementptr inbounds nuw %struct._pdo_stmt_t, ptr %13, i32 0, i32 11
  store ptr null, ptr %14, align 8, !tbaa !201
  %15 = load ptr, ptr %3, align 8, !tbaa !197
  %16 = getelementptr inbounds nuw %struct._pdo_row_t, ptr %15, i32 0, i32 0
  %17 = load ptr, ptr %16, align 8, !tbaa !199
  %18 = getelementptr inbounds nuw %struct._pdo_stmt_t, ptr %17, i32 0, i32 18
  call void @zend_object_release(ptr noundef %18)
  br label %19

19:                                               ; preds = %10, %1
  call void @llvm.lifetime.end.p0(i64 8, ptr %3) #14
  ret void
}