; Function Attrs: nounwind uwtable
define internal void @pdo_row_free_storage(ptr noundef readonly captures(none) %0) #0 {
  %2 = getelementptr inbounds i8, ptr %0, i64 -8
  %3 = load ptr, ptr %2, align 8, !tbaa !112
  %.not = icmp eq ptr %3, null
  br i1 %.not, label %zend_object_release.exit, label %4

4:                                                ; preds = %1
  %5 = getelementptr inbounds nuw i8, ptr %3, i64 104
  store ptr null, ptr %5, align 8, !tbaa !108
  %6 = getelementptr inbounds nuw i8, ptr %3, i64 160
  %7 = load i32, ptr %6, align 4, !tbaa !38
  %8 = icmp ne i32 %7, 0
  tail call void @llvm.assume(i1 %8)
  %9 = add i32 %7, -1
  store i32 %9, ptr %6, align 4, !tbaa !38
  %10 = icmp eq i32 %9, 0
  br i1 %10, label %11, label %12

11:                                               ; preds = %4
  tail call void @zend_objects_store_del(ptr noundef nonnull %6) #17
  br label %zend_object_release.exit

12:                                               ; preds = %4
  %13 = getelementptr inbounds nuw i8, ptr %3, i64 164
  %14 = load i32, ptr %13, align 4, !tbaa !37
  %15 = and i32 %14, -1008
  %16 = icmp eq i32 %15, 0
  br i1 %16, label %17, label %zend_object_release.exit, !prof !43

17:                                               ; preds = %12
  tail call void @gc_possible_root(ptr noundef nonnull %6) #17
  br label %zend_object_release.exit

zend_object_release.exit:                         ; preds = %17, %12, %11, %1
  ret void
}